target datalayout = "e-m:e-p270:32:32-p271:32:32-p272:64:64-i64:64-i128:128-f80:128-n8:16:32:64-S128"
target triple = "x86_64-pc-linux-gnu"

%struct.radix_process_st = type { i64, i64, i64, ptr, ptr, ptr, %struct.OSSL_TIME, ptr, i32, i32 }
%struct.OSSL_TIME = type { i64 }
%struct.radix_thread_st = type { ptr, ptr, ptr, i64, i64, [8 x ptr], [8 x ptr], ptr, ptr, ptr, i32, i32, i64 }

@radix_process = internal global %struct.radix_process_st zeroinitializer, align 8
@radix_thread = internal global i32 0, align 4

; Function Attrs: inlinehint nounwind uwtable
define internal void @lh_RADIX_OBJ_flush(ptr noundef %0) #5 {
  %2 = alloca ptr, align 8
  store ptr %0, ptr %2, align 8, !tbaa !89
  %3 = load ptr, ptr %2, align 8, !tbaa !89
  call void @OPENSSL_LH_flush(ptr noundef %3)
  ret void
}

; Function Attrs: inlinehint nounwind uwtable
define internal void @lh_RADIX_OBJ_doall(ptr noundef %0, ptr noundef %1) #5 {
  %3 = alloca ptr, align 8
  %4 = alloca ptr, align 8
  store ptr %0, ptr %3, align 8, !tbaa !89
  store ptr %1, ptr %4, align 8, !tbaa !41
  %5 = load ptr, ptr %3, align 8, !tbaa !89
  %6 = load ptr, ptr %4, align 8, !tbaa !41
  call void @OPENSSL_LH_doall(ptr noundef %5, ptr noundef %6)
  ret void
}

; Function Attrs: nounwind uwtable
define internal ptr @radix_get_thread() #0 {
  %1 = call ptr @CRYPTO_THREAD_get_local(ptr noundef @radix_thread)
  ret ptr %1
}

; Function Attrs: nounwind uwtable
define internal i32 @hf_clear(ptr noundef %0) #0 {
  %2 = alloca ptr, align 8
  %3 = alloca ptr, align 8
  %4 = alloca i64, align 8
  store ptr %0, ptr %2, align 8, !tbaa !42
  call void @llvm.lifetime.start.p0(i64 8, ptr %3) #9
  %5 = call ptr @radix_get_thread()
  store ptr %5, ptr %3, align 8, !tbaa !20
  call void @llvm.lifetime.start.p0(i64 8, ptr %4) #9
  %6 = load ptr, ptr getelementptr inbounds nuw (%struct.radix_process_st, ptr @radix_process, i32 0, i32 4), align 8, !tbaa !64
  call void @ossl_crypto_mutex_lock(ptr noundef %6)
  %7 = load ptr, ptr getelementptr inbounds nuw (%struct.radix_process_st, ptr @radix_process, i32 0, i32 5), align 8, !tbaa !68
  call void @lh_RADIX_OBJ_doall(ptr noundef %7, ptr noundef @cleanup_one)
  %8 = load ptr, ptr getelementptr inbounds nuw (%struct.radix_process_st, ptr @radix_process, i32 0, i32 5), align 8, !tbaa !68
  call void @lh_RADIX_OBJ_flush(ptr noundef %8)
  store i64 0, ptr %4, align 8, !tbaa !19
  br label %9

9:                                                ; preds = %21, %1
  %10 = load i64, ptr %4, align 8, !tbaa !19
  %11 = icmp ult i64 %10, 8
  br i1 %11, label %12, label %24

12:                                               ; preds = %9
  %13 = load ptr, ptr %3, align 8, !tbaa !20
  %14 = getelementptr inbounds nuw %struct.radix_thread_st, ptr %13, i32 0, i32 5
  %15 = load i64, ptr %4, align 8, !tbaa !19
  %16 = getelementptr inbounds nuw [8 x ptr], ptr %14, i64 0, i64 %15
  store ptr null, ptr %16, align 8, !tbaa !51
  %17 = load ptr, ptr %3, align 8, !tbaa !20
  %18 = getelementptr inbounds nuw %struct.radix_thread_st, ptr %17, i32 0, i32 6
  %19 = load i64, ptr %4, align 8, !tbaa !19
  %20 = getelementptr inbounds nuw [8 x ptr], ptr %18, i64 0, i64 %19
  store ptr null, ptr %20, align 8, !tbaa !49
  br label %21

21:                                               ; preds = %12
  %22 = load i64, ptr %4, align 8, !tbaa !19
  %23 = add i64 %22, 1
  store i64 %23, ptr %4, align 8, !tbaa !19
  br label %9, !llvm.loop !69

24:                                               ; preds = %9
  %25 = load ptr, ptr getelementptr inbounds nuw (%struct.radix_process_st, ptr @radix_process, i32 0, i32 4), align 8, !tbaa !64
  call void @ossl_crypto_mutex_unlock(ptr noundef %25)
  call void @llvm.lifetime.end.p0(i64 8, ptr %4) #9
  call void @llvm.lifetime.end.p0(i64 8, ptr %3) #9
  ret i32 1
}