; Function Attrs: nounwind uwtable
define internal noundef i32 @hf_clear(ptr readnone captures(none) %0) #1 {
  %2 = tail call ptr @CRYPTO_THREAD_get_local(ptr noundef nonnull @radix_thread) #12
  %3 = load ptr, ptr getelementptr inbounds nuw (i8, ptr @radix_process, i64 32), align 8, !tbaa !9
  tail call void @ossl_crypto_mutex_lock(ptr noundef %3) #12
  %4 = load ptr, ptr getelementptr inbounds nuw (i8, ptr @radix_process, i64 40), align 8, !tbaa !18
  tail call void @OPENSSL_LH_doall(ptr noundef %4, ptr noundef nonnull @cleanup_one) #12
  %5 = load ptr, ptr getelementptr inbounds nuw (i8, ptr @radix_process, i64 40), align 8, !tbaa !18
  tail call void @OPENSSL_LH_flush(ptr noundef %5) #12
  %6 = getelementptr inbounds nuw i8, ptr %2, i64 40
  tail call void @llvm.memset.p0.i64(ptr noundef nonnull align 8 dereferenceable(128) %6, i8 0, i64 128, i1 false)
  %7 = load ptr, ptr getelementptr inbounds nuw (i8, ptr @radix_process, i64 32), align 8, !tbaa !9
  tail call void @ossl_crypto_mutex_unlock(ptr noundef %7) #12
  ret i32 1
}